target datalayout = "e-m:e-p270:32:32-p271:32:32-p272:64:64-i64:64-i128:128-f80:128-n8:16:32:64-S128"
target triple = "x86_64-unknown-linux-gnu"

%class.b2Shape = type { ptr, i32, float }
%class.b2PolygonShape = type <{ %class.b2Shape, %struct.b2Vec2, [8 x %struct.b2Vec2], [8 x %struct.b2Vec2], i32, [4 x i8] }>
%struct.b2Vec2 = type { float, float }
%struct.b2Transform = type { %struct.b2Vec2, %struct.b2Rot }
%struct.b2Rot = type { float, float }

; Function Attrs: mustprogress nounwind uwtable
define linkonce_odr hidden void @_ZN6b2Vec2C2Eff(ptr noundef nonnull align 4 dereferenceable(8) %this, float noundef %xIn, float noundef %yIn) unnamed_addr #1 comdat align 2 {
entry:
  %this.addr = alloca ptr, align 8
  %xIn.addr = alloca float, align 4
  %yIn.addr = alloca float, align 4
  store ptr %this, ptr %this.addr, align 8
  store float %xIn, ptr %xIn.addr, align 4
  store float %yIn, ptr %yIn.addr, align 4
  %this1 = load ptr, ptr %this.addr, align 8
  %x = getelementptr inbounds %struct.b2Vec2, ptr %this1, i32 0, i32 0
  %0 = load float, ptr %xIn.addr, align 4
  store float %0, ptr %x, align 4
  %y = getelementptr inbounds %struct.b2Vec2, ptr %this1, i32 0, i32 1
  %1 = load float, ptr %yIn.addr, align 4
  store float %1, ptr %y, align 4
  ret void
}

; Function Attrs: mustprogress uwtable
define linkonce_odr hidden <2 x float> @_Z5b2MulRK5b2RotRK6b2Vec2(ptr noundef nonnull align 4 dereferenceable(8) %q, ptr noundef nonnull align 4 dereferenceable(8) %v) #3 comdat {
entry:
  %retval = alloca %struct.b2Vec2, align 4
  %q.addr = alloca ptr, align 8
  %v.addr = alloca ptr, align 8
  store ptr %q, ptr %q.addr, align 8
  store ptr %v, ptr %v.addr, align 8
  %0 = load ptr, ptr %q.addr, align 8
  %c = getelementptr inbounds %struct.b2Rot, ptr %0, i32 0, i32 1
  %1 = load float, ptr %c, align 4
  %2 = load ptr, ptr %v.addr, align 8
  %x = getelementptr inbounds %struct.b2Vec2, ptr %2, i32 0, i32 0
  %3 = load float, ptr %x, align 4
  %4 = load ptr, ptr %q.addr, align 8
  %s = getelementptr inbounds %struct.b2Rot, ptr %4, i32 0, i32 0
  %5 = load float, ptr %s, align 4
  %6 = load ptr, ptr %v.addr, align 8
  %y = getelementptr inbounds %struct.b2Vec2, ptr %6, i32 0, i32 1
  %7 = load float, ptr %y, align 4
  %mul1 = fmul float %5, %7
  %neg = fneg float %mul1
  %8 = call float @llvm.fmuladd.f32(float %1, float %3, float %neg)
  %9 = load ptr, ptr %q.addr, align 8
  %s2 = getelementptr inbounds %struct.b2Rot, ptr %9, i32 0, i32 0
  %10 = load float, ptr %s2, align 4
  %11 = load ptr, ptr %v.addr, align 8
  %x3 = getelementptr inbounds %struct.b2Vec2, ptr %11, i32 0, i32 0
  %12 = load float, ptr %x3, align 4
  %13 = load ptr, ptr %q.addr, align 8
  %c4 = getelementptr inbounds %struct.b2Rot, ptr %13, i32 0, i32 1
  %14 = load float, ptr %c4, align 4
  %15 = load ptr, ptr %v.addr, align 8
  %y5 = getelementptr inbounds %struct.b2Vec2, ptr %15, i32 0, i32 1
  %16 = load float, ptr %y5, align 4
  %mul6 = fmul float %14, %16
  %17 = call float @llvm.fmuladd.f32(float %10, float %12, float %mul6)
  call void @_ZN6b2Vec2C2Eff(ptr noundef nonnull align 4 dereferenceable(8) %retval, float noundef %8, float noundef %17)
  %18 = load <2 x float>, ptr %retval, align 4
  ret <2 x float> %18
}

; Function Attrs: mustprogress uwtable
define linkonce_odr hidden <2 x float> @_Z5b2MulRK11b2TransformRK6b2Vec2(ptr noundef nonnull align 4 dereferenceable(16) %T, ptr noundef nonnull align 4 dereferenceable(8) %v) #3 comdat {
entry:
  %retval = alloca %struct.b2Vec2, align 4
  %T.addr = alloca ptr, align 8
  %v.addr = alloca ptr, align 8
  %x = alloca float, align 4
  %y5 = alloca float, align 4
  store ptr %T, ptr %T.addr, align 8
  store ptr %v, ptr %v.addr, align 8
  %0 = load ptr, ptr %T.addr, align 8
  %q = getelementptr inbounds %struct.b2Transform, ptr %0, i32 0, i32 1
  %c = getelementptr inbounds %struct.b2Rot, ptr %q, i32 0, i32 1
  %1 = load float, ptr %c, align 4
  %2 = load ptr, ptr %v.addr, align 8
  %x1 = getelementptr inbounds %struct.b2Vec2, ptr %2, i32 0, i32 0
  %3 = load float, ptr %x1, align 4
  %4 = load ptr, ptr %T.addr, align 8
  %q2 = getelementptr inbounds %struct.b2Transform, ptr %4, i32 0, i32 1
  %s = getelementptr inbounds %struct.b2Rot, ptr %q2, i32 0, i32 0
  %5 = load float, ptr %s, align 4
  %6 = load ptr, ptr %v.addr, align 8
  %y = getelementptr inbounds %struct.b2Vec2, ptr %6, i32 0, i32 1
  %7 = load float, ptr %y, align 4
  %mul3 = fmul float %5, %7
  %neg = fneg float %mul3
  %8 = call float @llvm.fmuladd.f32(float %1, float %3, float %neg)
  %9 = load ptr, ptr %T.addr, align 8
  %p = getelementptr inbounds %struct.b2Transform, ptr %9, i32 0, i32 0
  %x4 = getelementptr inbounds %struct.b2Vec2, ptr %p, i32 0, i32 0
  %10 = load float, ptr %x4, align 4
  %add = fadd float %8, %10
  store float %add, ptr %x, align 4
  %11 = load ptr, ptr %T.addr, align 8
  %q6 = getelementptr inbounds %struct.b2Transform, ptr %11, i32 0, i32 1
  %s7 = getelementptr inbounds %struct.b2Rot, ptr %q6, i32 0, i32 0
  %12 = load float, ptr %s7, align 4
  %13 = load ptr, ptr %v.addr, align 8
  %x8 = getelementptr inbounds %struct.b2Vec2, ptr %13, i32 0, i32 0
  %14 = load float, ptr %x8, align 4
  %15 = load ptr, ptr %T.addr, align 8
  %q9 = getelementptr inbounds %struct.b2Transform, ptr %15, i32 0, i32 1
  %c10 = getelementptr inbounds %struct.b2Rot, ptr %q9, i32 0, i32 1
  %16 = load float, ptr %c10, align 4
  %17 = load ptr, ptr %v.addr, align 8
  %y11 = getelementptr inbounds %struct.b2Vec2, ptr %17, i32 0, i32 1
  %18 = load float, ptr %y11, align 4
  %mul12 = fmul float %16, %18
  %19 = call float @llvm.fmuladd.f32(float %12, float %14, float %mul12)
  %20 = load ptr, ptr %T.addr, align 8
  %p13 = getelementptr inbounds %struct.b2Transform, ptr %20, i32 0, i32 0
  %y14 = getelementptr inbounds %struct.b2Vec2, ptr %p13, i32 0, i32 1
  %21 = load float, ptr %y14, align 4
  %add15 = fadd float %19, %21
  store float %add15, ptr %y5, align 4
  %22 = load float, ptr %x, align 4
  %23 = load float, ptr %y5, align 4
  call void @_ZN6b2Vec2C2Eff(ptr noundef nonnull align 4 dereferenceable(8) %retval, float noundef %22, float noundef %23)
  %24 = load <2 x float>, ptr %retval, align 4
  ret <2 x float> %24
}

; Function Attrs: mustprogress nounwind uwtable
define linkonce_odr hidden void @_ZN5b2Rot3SetEf(ptr noundef nonnull align 4 dereferenceable(8) %this, float noundef %angle) #1 comdat align 2 {
entry:
  %this.addr = alloca ptr, align 8
  %angle.addr = alloca float, align 4
  store ptr %this, ptr %this.addr, align 8
  store float %angle, ptr %angle.addr, align 4
  %this1 = load ptr, ptr %this.addr, align 8
  %0 = load float, ptr %angle.addr, align 4
  %call = call float @sinf(float noundef %0) #9
  %s = getelementptr inbounds %struct.b2Rot, ptr %this1, i32 0, i32 0
  store float %call, ptr %s, align 4
  %1 = load float, ptr %angle.addr, align 4
  %call2 = call float @cosf(float noundef %1) #9
  %c = getelementptr inbounds %struct.b2Rot, ptr %this1, i32 0, i32 1
  store float %call2, ptr %c, align 4
  ret void
}

; Function Attrs: mustprogress nounwind uwtable
define linkonce_odr hidden void @_ZN6b2Vec23SetEff(ptr noundef nonnull align 4 dereferenceable(8) %this, float noundef %x_, float noundef %y_) #1 comdat align 2 {
entry:
  %this.addr = alloca ptr, align 8
  %x_.addr = alloca float, align 4
  %y_.addr = alloca float, align 4
  store ptr %this, ptr %this.addr, align 8
  store float %x_, ptr %x_.addr, align 4
  store float %y_, ptr %y_.addr, align 4
  %this1 = load ptr, ptr %this.addr, align 8
  %0 = load float, ptr %x_.addr, align 4
  %x = getelementptr inbounds %struct.b2Vec2, ptr %this1, i32 0, i32 0
  store float %0, ptr %x, align 4
  %1 = load float, ptr %y_.addr, align 4
  %y = getelementptr inbounds %struct.b2Vec2, ptr %this1, i32 0, i32 1
  store float %1, ptr %y, align 4
  ret void
}

; Function Attrs: mustprogress uwtable
define void @_ZN14b2PolygonShape8SetAsBoxEffRK6b2Vec2f(ptr noundef nonnull align 8 dereferenceable(156) %this, float noundef %hx, float noundef %hy, ptr noundef nonnull align 4 dereferenceable(8) %center, float noundef %angle) #3 align 2 {
entry:
  %this.addr = alloca ptr, align 8
  %hx.addr = alloca float, align 4
  %hy.addr = alloca float, align 4
  %center.addr = alloca ptr, align 8
  %angle.addr = alloca float, align 4
  %xf = alloca %struct.b2Transform, align 4
  %i = alloca i32, align 4
  %ref.tmp = alloca %struct.b2Vec2, align 4
  %ref.tmp24 = alloca %struct.b2Vec2, align 4
  store ptr %this, ptr %this.addr, align 8
  store float %hx, ptr %hx.addr, align 4
  store float %hy, ptr %hy.addr, align 4
  store ptr %center, ptr %center.addr, align 8
  store float %angle, ptr %angle.addr, align 4
  %this1 = load ptr, ptr %this.addr, align 8
  %m_count = getelementptr inbounds %class.b2PolygonShape, ptr %this1, i32 0, i32 4
  store i32 4, ptr %m_count, align 8
  %m_vertices = getelementptr inbounds %class.b2PolygonShape, ptr %this1, i32 0, i32 2
  %arrayidx = getelementptr inbounds [8 x %struct.b2Vec2], ptr %m_vertices, i64 0, i64 0
  %0 = load float, ptr %hx.addr, align 4
  %fneg = fneg float %0
  %1 = load float, ptr %hy.addr, align 4
  %fneg2 = fneg float %1
  call void @_ZN6b2Vec23SetEff(ptr noundef nonnull align 4 dereferenceable(8) %arrayidx, float noundef %fneg, float noundef %fneg2)
  %m_vertices3 = getelementptr inbounds %class.b2PolygonShape, ptr %this1, i32 0, i32 2
  %arrayidx4 = getelementptr inbounds [8 x %struct.b2Vec2], ptr %m_vertices3, i64 0, i64 1
  %2 = load float, ptr %hx.addr, align 4
  %3 = load float, ptr %hy.addr, align 4
  %fneg5 = fneg float %3
  call void @_ZN6b2Vec23SetEff(ptr noundef nonnull align 4 dereferenceable(8) %arrayidx4, float noundef %2, float noundef %fneg5)
  %m_vertices6 = getelementptr inbounds %class.b2PolygonShape, ptr %this1, i32 0, i32 2
  %arrayidx7 = getelementptr inbounds [8 x %struct.b2Vec2], ptr %m_vertices6, i64 0, i64 2
  %4 = load float, ptr %hx.addr, align 4
  %5 = load float, ptr %hy.addr, align 4
  call void @_ZN6b2Vec23SetEff(ptr noundef nonnull align 4 dereferenceable(8) %arrayidx7, float noundef %4, float noundef %5)
  %m_vertices8 = getelementptr inbounds %class.b2PolygonShape, ptr %this1, i32 0, i32 2
  %arrayidx9 = getelementptr inbounds [8 x %struct.b2Vec2], ptr %m_vertices8, i64 0, i64 3
  %6 = load float, ptr %hx.addr, align 4
  %fneg10 = fneg float %6
  %7 = load float, ptr %hy.addr, align 4
  call void @_ZN6b2Vec23SetEff(ptr noundef nonnull align 4 dereferenceable(8) %arrayidx9, float noundef %fneg10, float noundef %7)
  %m_normals = getelementptr inbounds %class.b2PolygonShape, ptr %this1, i32 0, i32 3
  %arrayidx11 = getelementptr inbounds [8 x %struct.b2Vec2], ptr %m_normals, i64 0, i64 0
  call void @_ZN6b2Vec23SetEff(ptr noundef nonnull align 4 dereferenceable(8) %arrayidx11, float noundef 0.000000e+00, float noundef -1.000000e+00)
  %m_normals12 = getelementptr inbounds %class.b2PolygonShape, ptr %this1, i32 0, i32 3
  %arrayidx13 = getelementptr inbounds [8 x %struct.b2Vec2], ptr %m_normals12, i64 0, i64 1
  call void @_ZN6b2Vec23SetEff(ptr noundef nonnull align 4 dereferenceable(8) %arrayidx13, float noundef 1.000000e+00, float noundef 0.000000e+00)
  %m_normals14 = getelementptr inbounds %class.b2PolygonShape, ptr %this1, i32 0, i32 3
  %arrayidx15 = getelementptr inbounds [8 x %struct.b2Vec2], ptr %m_normals14, i64 0, i64 2
  call void @_ZN6b2Vec23SetEff(ptr noundef nonnull align 4 dereferenceable(8) %arrayidx15, float noundef 0.000000e+00, float noundef 1.000000e+00)
  %m_normals16 = getelementptr inbounds %class.b2PolygonShape, ptr %this1, i32 0, i32 3
  %arrayidx17 = getelementptr inbounds [8 x %struct.b2Vec2], ptr %m_normals16, i64 0, i64 3
  call void @_ZN6b2Vec23SetEff(ptr noundef nonnull align 4 dereferenceable(8) %arrayidx17, float noundef -1.000000e+00, float noundef 0.000000e+00)
  %8 = load ptr, ptr %center.addr, align 8
  %m_centroid = getelementptr inbounds %class.b2PolygonShape, ptr %this1, i32 0, i32 1
  call void @llvm.memcpy.p0.p0.i64(ptr align 8 %m_centroid, ptr align 4 %8, i64 8, i1 false)
  %9 = load ptr, ptr %center.addr, align 8
  %p = getelementptr inbounds %struct.b2Transform, ptr %xf, i32 0, i32 0
  call void @llvm.memcpy.p0.p0.i64(ptr align 4 %p, ptr align 4 %9, i64 8, i1 false)
  %q = getelementptr inbounds %struct.b2Transform, ptr %xf, i32 0, i32 1
  %10 = load float, ptr %angle.addr, align 4
  call void @_ZN5b2Rot3SetEf(ptr noundef nonnull align 4 dereferenceable(8) %q, float noundef %10)
  store i32 0, ptr %i, align 4
  br label %for.cond

for.cond:                                         ; preds = %for.inc, %entry
  %11 = load i32, ptr %i, align 4
  %m_count18 = getelementptr inbounds %class.b2PolygonShape, ptr %this1, i32 0, i32 4
  %12 = load i32, ptr %m_count18, align 8
  %cmp = icmp slt i32 %11, %12
  br i1 %cmp, label %for.body, label %for.end

for.body:                                         ; preds = %for.cond
  %m_vertices19 = getelementptr inbounds %class.b2PolygonShape, ptr %this1, i32 0, i32 2
  %13 = load i32, ptr %i, align 4
  %idxprom = sext i32 %13 to i64
  %arrayidx20 = getelementptr inbounds [8 x %struct.b2Vec2], ptr %m_vertices19, i64 0, i64 %idxprom
  %call = call <2 x float> @_Z5b2MulRK11b2TransformRK6b2Vec2(ptr noundef nonnull align 4 dereferenceable(16) %xf, ptr noundef nonnull align 4 dereferenceable(8) %arrayidx20)
  store <2 x float> %call, ptr %ref.tmp, align 4
  %m_vertices21 = getelementptr inbounds %class.b2PolygonShape, ptr %this1, i32 0, i32 2
  %14 = load i32, ptr %i, align 4
  %idxprom22 = sext i32 %14 to i64
  %arrayidx23 = getelementptr inbounds [8 x %struct.b2Vec2], ptr %m_vertices21, i64 0, i64 %idxprom22
  call void @llvm.memcpy.p0.p0.i64(ptr align 8 %arrayidx23, ptr align 4 %ref.tmp, i64 8, i1 false)
  %q25 = getelementptr inbounds %struct.b2Transform, ptr %xf, i32 0, i32 1
  %m_normals26 = getelementptr inbounds %class.b2PolygonShape, ptr %this1, i32 0, i32 3
  %15 = load i32, ptr %i, align 4
  %idxprom27 = sext i32 %15 to i64
  %arrayidx28 = getelementptr inbounds [8 x %struct.b2Vec2], ptr %m_normals26, i64 0, i64 %idxprom27
  %call29 = call <2 x float> @_Z5b2MulRK5b2RotRK6b2Vec2(ptr noundef nonnull align 4 dereferenceable(8) %q25, ptr noundef nonnull align 4 dereferenceable(8) %arrayidx28)
  store <2 x float> %call29, ptr %ref.tmp24, align 4
  %m_normals30 = getelementptr inbounds %class.b2PolygonShape, ptr %this1, i32 0, i32 3
  %16 = load i32, ptr %i, align 4
  %idxprom31 = sext i32 %16 to i64
  %arrayidx32 = getelementptr inbounds [8 x %struct.b2Vec2], ptr %m_normals30, i64 0, i64 %idxprom31
  call void @llvm.memcpy.p0.p0.i64(ptr align 8 %arrayidx32, ptr align 4 %ref.tmp24, i64 8, i1 false)
  br label %for.inc

for.inc:                                          ; preds = %for.body
  %17 = load i32, ptr %i, align 4
  %inc = add nsw i32 %17, 1
  store i32 %inc, ptr %i, align 4
  br label %for.cond, !llvm.loop !4

for.end:                                          ; preds = %for.cond
  ret void
}