; Function Attrs: mustprogress nofree nounwind memory(write, argmem: readwrite) uwtable
define void @_ZN14b2PolygonShape8SetAsBoxEffRK6b2Vec2f(ptr nocapture noundef nonnull align 8 dereferenceable(156) %this, float noundef %hx, float noundef %hy, ptr nocapture noundef nonnull readonly align 4 dereferenceable(8) %center, float noundef %angle) local_unnamed_addr #3 align 2 {
entry:
  %m_count = getelementptr inbounds i8, ptr %this, i64 152
  store i32 4, ptr %m_count, align 8
  %m_vertices = getelementptr inbounds i8, ptr %this, i64 24
  %fneg = fneg float %hx
  %fneg2 = fneg float %hy
  store float %fneg, ptr %m_vertices, align 8
  %y.i = getelementptr inbounds i8, ptr %this, i64 28
  store float %fneg2, ptr %y.i, align 4
  %arrayidx4 = getelementptr inbounds i8, ptr %this, i64 32
  store float %hx, ptr %arrayidx4, align 8
  %y.i13 = getelementptr inbounds i8, ptr %this, i64 36
  store float %fneg2, ptr %y.i13, align 4
  %arrayidx7 = getelementptr inbounds i8, ptr %this, i64 40
  store float %hx, ptr %arrayidx7, align 8
  %y.i14 = getelementptr inbounds i8, ptr %this, i64 44
  store float %hy, ptr %y.i14, align 4
  %arrayidx9 = getelementptr inbounds i8, ptr %this, i64 48
  store float %fneg, ptr %arrayidx9, align 8
  %y.i15 = getelementptr inbounds i8, ptr %this, i64 52
  store float %hy, ptr %y.i15, align 4
  %m_normals = getelementptr inbounds i8, ptr %this, i64 88
  store <4 x float> <float 0.000000e+00, float -1.000000e+00, float 1.000000e+00, float 0.000000e+00>, ptr %m_normals, align 8
  %arrayidx15 = getelementptr inbounds i8, ptr %this, i64 104
  store <4 x float> <float 0.000000e+00, float 1.000000e+00, float -1.000000e+00, float 0.000000e+00>, ptr %arrayidx15, align 8
  %m_centroid = getelementptr inbounds i8, ptr %this, i64 16
  %0 = load i64, ptr %center, align 4
  store i64 %0, ptr %m_centroid, align 8
  %1 = load <2 x float>, ptr %center, align 4
  %call.i = tail call float @sinf(float noundef %angle) #14
  %call2.i = tail call float @cosf(float noundef %angle) #14
  %2 = load i32, ptr %m_count, align 8
  %cmp29 = icmp sgt i32 %2, 0
  br i1 %cmp29, label %for.body.lr.ph, label %for.end

for.body.lr.ph:                                   ; preds = %entry
  %3 = fneg float %call.i
  %4 = insertelement <2 x float> poison, float %3, i64 0
  %5 = insertelement <2 x float> %4, float %call2.i, i64 1
  %6 = insertelement <2 x float> poison, float %call2.i, i64 0
  %7 = insertelement <2 x float> %6, float %call.i, i64 1
  br label %for.body

for.body:                                         ; preds = %for.body.lr.ph, %for.body
  %indvars.iv = phi i64 [ 0, %for.body.lr.ph ], [ %indvars.iv.next, %for.body ]
  %arrayidx20 = getelementptr inbounds [8 x %struct.b2Vec2], ptr %m_vertices, i64 0, i64 %indvars.iv
  %8 = load float, ptr %arrayidx20, align 8
  %y.i21 = getelementptr inbounds i8, ptr %arrayidx20, i64 4
  %9 = load float, ptr %y.i21, align 4
  %10 = insertelement <2 x float> poison, float %9, i64 0
  %11 = shufflevector <2 x float> %10, <2 x float> poison, <2 x i32> zeroinitializer
  %12 = fmul <2 x float> %11, %5
  %13 = insertelement <2 x float> poison, float %8, i64 0
  %14 = shufflevector <2 x float> %13, <2 x float> poison, <2 x i32> zeroinitializer
  %15 = tail call <2 x float> @llvm.fmuladd.v2f32(<2 x float> %7, <2 x float> %14, <2 x float> %12)
  %16 = fadd <2 x float> %1, %15
  store <2 x float> %16, ptr %arrayidx20, align 8
  %arrayidx28 = getelementptr inbounds [8 x %struct.b2Vec2], ptr %m_normals, i64 0, i64 %indvars.iv
  %17 = load float, ptr %arrayidx28, align 8
  %y.i23 = getelementptr inbounds i8, ptr %arrayidx28, i64 4
  %18 = load float, ptr %y.i23, align 4
  %19 = insertelement <2 x float> poison, float %18, i64 0
  %20 = shufflevector <2 x float> %19, <2 x float> poison, <2 x i32> zeroinitializer
  %21 = fmul <2 x float> %20, %5
  %22 = insertelement <2 x float> poison, float %17, i64 0
  %23 = shufflevector <2 x float> %22, <2 x float> poison, <2 x i32> zeroinitializer
  %24 = tail call <2 x float> @llvm.fmuladd.v2f32(<2 x float> %7, <2 x float> %23, <2 x float> %21)
  store <2 x float> %24, ptr %arrayidx28, align 8
  %indvars.iv.next = add nuw nsw i64 %indvars.iv, 1
  %25 = load i32, ptr %m_count, align 8
  %26 = sext i32 %25 to i64
  %cmp = icmp slt i64 %indvars.iv.next, %26
  br i1 %cmp, label %for.body, label %for.end, !llvm.loop !4

for.end:                                          ; preds = %for.body, %entry
  ret void
}